; ModuleID = 'source-C-CXX/36/293.c'
source_filename = "source-C-CXX/36/293.c"
target datalayout = "e-m:e-p270:32:32-p271:32:32-p272:64:64-i64:64-f80:128-n8:16:32:64-S128"
target triple = "x86_64-pc-linux-gnu"

@.str = private unnamed_addr constant [3 x i8] c"%d\00", align 1
@.str.1 = private unnamed_addr constant [3 x i8] c"%s\00", align 1
@.str.2 = private unnamed_addr constant [4 x i8] c"%c\0A\00", align 1
@str = private unnamed_addr constant [3 x i8] c"no\00", align 1

; Function Attrs: nofree nounwind sspstrong uwtable
define dso_local i32 @main() local_unnamed_addr #0 {
  %1 = alloca [100001 x i8], align 16
  %2 = getelementptr inbounds [100001 x i8], [100001 x i8]* %1, i64 0, i64 0
  %3 = alloca i32, align 4
  %4 = alloca [26 x i32], align 16
  %5 = bitcast [26 x i32]* %4 to i8*
  %6 = getelementptr inbounds [100001 x i8], [100001 x i8]* %1, i64 0, i64 0
  call void @llvm.lifetime.start.p0i8(i64 100001, i8* nonnull %6) #5
  call void @llvm.memset.p0i8.i64(i8* noundef nonnull align 16 dereferenceable(100001) %6, i8 0, i64 100001, i1 false)
  %7 = bitcast i32* %3 to i8*
  call void @llvm.lifetime.start.p0i8(i64 4, i8* nonnull %7) #5
  call void @llvm.lifetime.start.p0i8(i64 104, i8* nonnull %5) #5
  %8 = call i32 (i8*, ...) @__isoc99_scanf(i8* getelementptr inbounds ([3 x i8], [3 x i8]* @.str, i64 0, i64 0), i32* nonnull %3)
  %9 = load i32, i32* %3, align 4, !tbaa !5
  %10 = icmp sgt i32 %9, 0
  br i1 %10, label %11, label %16

11:                                               ; preds = %0, %57
  %12 = phi i32 [ %58, %57 ], [ 0, %0 ]
  call void @llvm.memset.p0i8.i64(i8* noundef nonnull align 16 dereferenceable(104) %5, i8 0, i64 104, i1 false)
  call void @llvm.memset.p0i8.i64(i8* noundef nonnull align 16 dereferenceable(100001) %2, i8 0, i64 100001, i1 false)
  %13 = call i32 (i8*, ...) @__isoc99_scanf(i8* getelementptr inbounds ([3 x i8], [3 x i8]* @.str.1, i64 0, i64 0), i8* nonnull %6)
  %14 = load i8, i8* %6, align 16, !tbaa !9
  %15 = icmp eq i8 %14, 0
  br i1 %15, label %55, label %27

16:                                               ; preds = %57, %0
  call void @llvm.lifetime.end.p0i8(i64 104, i8* nonnull %5) #5
  call void @llvm.lifetime.end.p0i8(i64 4, i8* nonnull %7) #5
  call void @llvm.lifetime.end.p0i8(i64 100001, i8* nonnull %6) #5
  ret i32 0

17:                                               ; preds = %27
  %18 = trunc i64 %35 to i32
  %19 = icmp eq i32 %18, 0
  br i1 %19, label %55, label %20

20:                                               ; preds = %17
  %21 = and i64 %35, 4294967295
  %22 = sext i8 %14 to i64
  %23 = add nsw i64 %22, -97
  %24 = getelementptr inbounds [26 x i32], [26 x i32]* %4, i64 0, i64 %23
  %25 = load i32, i32* %24, align 4, !tbaa !5
  %26 = icmp eq i32 %25, 1
  br i1 %26, label %51, label %39

27:                                               ; preds = %11, %27
  %28 = phi i64 [ %35, %27 ], [ 0, %11 ]
  %29 = phi i8 [ %37, %27 ], [ %14, %11 ]
  %30 = sext i8 %29 to i64
  %31 = add nsw i64 %30, -97
  %32 = getelementptr inbounds [26 x i32], [26 x i32]* %4, i64 0, i64 %31
  %33 = load i32, i32* %32, align 4, !tbaa !5
  %34 = add nsw i32 %33, 1
  store i32 %34, i32* %32, align 4, !tbaa !5
  %35 = add nuw nsw i64 %28, 1
  %36 = getelementptr inbounds [100001 x i8], [100001 x i8]* %1, i64 0, i64 %35
  %37 = load i8, i8* %36, align 1, !tbaa !9
  %38 = icmp eq i8 %37, 0
  br i1 %38, label %17, label %27

39:                                               ; preds = %20, %42
  %40 = phi i64 [ %50, %42 ], [ 1, %20 ]
  %41 = icmp eq i64 %40, %21
  br i1 %41, label %55, label %42, !llvm.loop !10

42:                                               ; preds = %39
  %43 = getelementptr inbounds [100001 x i8], [100001 x i8]* %1, i64 0, i64 %40
  %44 = load i8, i8* %43, align 1, !tbaa !9
  %45 = sext i8 %44 to i64
  %46 = add nsw i64 %45, -97
  %47 = getelementptr inbounds [26 x i32], [26 x i32]* %4, i64 0, i64 %46
  %48 = load i32, i32* %47, align 4, !tbaa !5
  %49 = icmp eq i32 %48, 1
  %50 = add nuw nsw i64 %40, 1
  br i1 %49, label %51, label %39

51:                                               ; preds = %42, %20
  %52 = phi i8 [ %14, %20 ], [ %44, %42 ]
  %53 = sext i8 %52 to i32
  %54 = call i32 (i8*, ...) @printf(i8* nonnull dereferenceable(1) getelementptr inbounds ([4 x i8], [4 x i8]* @.str.2, i64 0, i64 0), i32 %53)
  br label %57

55:                                               ; preds = %39, %11, %17
  %56 = call i32 @puts(i8* nonnull dereferenceable(1) getelementptr inbounds ([3 x i8], [3 x i8]* @str, i64 0, i64 0))
  br label %57

57:                                               ; preds = %51, %55
  %58 = add nuw nsw i32 %12, 1
  %59 = load i32, i32* %3, align 4, !tbaa !5
  %60 = icmp slt i32 %58, %59
  br i1 %60, label %11, label %16, !llvm.loop !12
}

; Function Attrs: argmemonly mustprogress nofree nosync nounwind willreturn
declare void @llvm.lifetime.start.p0i8(i64 immarg, i8* nocapture) #1

; Function Attrs: argmemonly mustprogress nofree nounwind willreturn writeonly
declare void @llvm.memset.p0i8.i64(i8* nocapture writeonly, i8, i64, i1 immarg) #2

; Function Attrs: nofree nounwind
declare noundef i32 @__isoc99_scanf(i8* nocapture noundef readonly, ...) local_unnamed_addr #3

; Function Attrs: argmemonly mustprogress nofree nosync nounwind willreturn
declare void @llvm.lifetime.end.p0i8(i64 immarg, i8* nocapture) #1

; Function Attrs: nofree nounwind
declare noundef i32 @printf(i8* nocapture noundef readonly, ...) local_unnamed_addr #3

; Function Attrs: nofree nounwind
declare noundef i32 @puts(i8* nocapture noundef readonly) local_unnamed_addr #4


!llvm.module.flags = !{!0, !1, !2, !3}
!llvm.ident = !{!4}

!0 = !{i32 1, !"wchar_size", i32 4}
!1 = !{i32 7, !"PIC Level", i32 2}
!2 = !{i32 7, !"PIE Level", i32 2}
!3 = !{i32 7, !"uwtable", i32 1}
!4 = !{!"clang version 13.0.0"}
!5 = !{!6, !6, i64 0}
!6 = !{!"int", !7, i64 0}
!7 = !{!"omnipotent char", !8, i64 0}
!8 = !{!"Simple C/C++ TBAA"}
!9 = !{!7, !7, i64 0}
!10 = distinct !{!10, !11}
!11 = !{!"llvm.loop.mustprogress"}
!12 = distinct !{!12, !11}
